target datalayout = "e-m:e-p270:32:32-p271:32:32-p272:64:64-i64:64-i128:128-f80:128-n8:16:32:64-S128"
target triple = "x86_64-pc-linux-gnu"

%union.EX_STYPE = type { ptr }
%struct.Expr_s = type { ptr, ptr, [10 x ptr], ptr, ptr, ptr, ptr, ptr, ptr, %struct.agxbuf, %union.EX_STYPE, %struct.Exid_s, [512 x i8], ptr, i32, i32, i32, i64, i64, i32 }
%struct.agxbuf = type { %union.anon.10 }
%union.anon.10 = type { %struct.anon.11 }
%struct.anon.11 = type { ptr, i64, i64, [7 x i8], i8 }
%struct.Exid_s = type { %struct.dtlink_s_, i64, i64, i64, i64, ptr, ptr, [32 x i8] }
%struct.dtlink_s_ = type { ptr, %union.anon.12 }
%union.anon.12 = type { ptr }

; Function Attrs: nounwind uwtable
define internal ptr @str_xor(ptr noundef %0, ptr noundef %1, ptr noundef %2) #0 {
  %4 = alloca ptr, align 8
  %5 = alloca ptr, align 8
  %6 = alloca ptr, align 8
  %7 = alloca ptr, align 8
  %8 = alloca i64, align 8
  %9 = alloca ptr, align 8
  %10 = alloca ptr, align 8
  %11 = alloca ptr, align 8
  %12 = alloca i32, align 4
  %13 = alloca i64, align 8
  %14 = alloca ptr, align 8
  %15 = alloca ptr, align 8
  store ptr %0, ptr %5, align 8, !tbaa !3
  store ptr %1, ptr %6, align 8, !tbaa !42
  store ptr %2, ptr %7, align 8, !tbaa !42
  call void @llvm.lifetime.start.p0(i64 8, ptr %8) #15
  store i64 1, ptr %8, align 8, !tbaa !45
  call void @llvm.lifetime.start.p0(i64 8, ptr %9) #15
  %16 = load ptr, ptr %6, align 8, !tbaa !42
  store ptr %16, ptr %9, align 8, !tbaa !42
  br label %17

17:                                               ; preds = %42, %3
  %18 = load ptr, ptr %9, align 8, !tbaa !42
  %19 = load i8, ptr %18, align 1, !tbaa !11
  %20 = sext i8 %19 to i32
  %21 = icmp ne i32 %20, 0
  br i1 %21, label %23, label %22

22:                                               ; preds = %17
  call void @llvm.lifetime.end.p0(i64 8, ptr %9) #15
  br label %45

23:                                               ; preds = %17
  %24 = load ptr, ptr %7, align 8, !tbaa !42
  %25 = load ptr, ptr %9, align 8, !tbaa !42
  %26 = load i8, ptr %25, align 1, !tbaa !11
  %27 = sext i8 %26 to i32
  %28 = call ptr @strchr(ptr noundef %24, i32 noundef %27) #18
  %29 = icmp eq ptr %28, null
  br i1 %29, label %30, label %41

30:                                               ; preds = %23
  %31 = load ptr, ptr %9, align 8, !tbaa !42
  %32 = getelementptr inbounds i8, ptr %31, i64 1
  %33 = load ptr, ptr %9, align 8, !tbaa !42
  %34 = load i8, ptr %33, align 1, !tbaa !11
  %35 = sext i8 %34 to i32
  %36 = call ptr @strchr(ptr noundef %32, i32 noundef %35) #18
  %37 = icmp eq ptr %36, null
  br i1 %37, label %38, label %41

38:                                               ; preds = %30
  %39 = load i64, ptr %8, align 8, !tbaa !45
  %40 = add i64 %39, 1
  store i64 %40, ptr %8, align 8, !tbaa !45
  br label %41

41:                                               ; preds = %38, %30, %23
  br label %42

42:                                               ; preds = %41
  %43 = load ptr, ptr %9, align 8, !tbaa !42
  %44 = getelementptr inbounds nuw i8, ptr %43, i32 1
  store ptr %44, ptr %9, align 8, !tbaa !42
  br label %17, !llvm.loop !112

45:                                               ; preds = %22
  call void @llvm.lifetime.start.p0(i64 8, ptr %10) #15
  %46 = load ptr, ptr %7, align 8, !tbaa !42
  store ptr %46, ptr %10, align 8, !tbaa !42
  br label %47

47:                                               ; preds = %72, %45
  %48 = load ptr, ptr %10, align 8, !tbaa !42
  %49 = load i8, ptr %48, align 1, !tbaa !11
  %50 = sext i8 %49 to i32
  %51 = icmp ne i32 %50, 0
  br i1 %51, label %53, label %52

52:                                               ; preds = %47
  call void @llvm.lifetime.end.p0(i64 8, ptr %10) #15
  br label %75

53:                                               ; preds = %47
  %54 = load ptr, ptr %6, align 8, !tbaa !42
  %55 = load ptr, ptr %10, align 8, !tbaa !42
  %56 = load i8, ptr %55, align 1, !tbaa !11
  %57 = sext i8 %56 to i32
  %58 = call ptr @strchr(ptr noundef %54, i32 noundef %57) #18
  %59 = icmp eq ptr %58, null
  br i1 %59, label %60, label %71

60:                                               ; preds = %53
  %61 = load ptr, ptr %10, align 8, !tbaa !42
  %62 = getelementptr inbounds i8, ptr %61, i64 1
  %63 = load ptr, ptr %10, align 8, !tbaa !42
  %64 = load i8, ptr %63, align 1, !tbaa !11
  %65 = sext i8 %64 to i32
  %66 = call ptr @strchr(ptr noundef %62, i32 noundef %65) #18
  %67 = icmp eq ptr %66, null
  br i1 %67, label %68, label %71

68:                                               ; preds = %60
  %69 = load i64, ptr %8, align 8, !tbaa !45
  %70 = add i64 %69, 1
  store i64 %70, ptr %8, align 8, !tbaa !45
  br label %71

71:                                               ; preds = %68, %60, %53
  br label %72

72:                                               ; preds = %71
  %73 = load ptr, ptr %10, align 8, !tbaa !42
  %74 = getelementptr inbounds nuw i8, ptr %73, i32 1
  store ptr %74, ptr %10, align 8, !tbaa !42
  br label %47, !llvm.loop !113

75:                                               ; preds = %52
  call void @llvm.lifetime.start.p0(i64 8, ptr %11) #15
  %76 = load ptr, ptr %5, align 8, !tbaa !3
  %77 = getelementptr inbounds nuw %struct.Expr_s, ptr %76, i32 0, i32 4
  %78 = load ptr, ptr %77, align 8, !tbaa !74
  %79 = load i64, ptr %8, align 8, !tbaa !45
  %80 = call ptr @vmalloc(ptr noundef %78, i64 noundef %79)
  store ptr %80, ptr %11, align 8, !tbaa !42
  %81 = load ptr, ptr %11, align 8, !tbaa !42
  %82 = icmp eq ptr %81, null
  br i1 %82, label %83, label %85

83:                                               ; preds = %75
  %84 = call ptr @exnospace()
  store ptr %84, ptr %4, align 8
  store i32 1, ptr %12, align 4
  br label %160

85:                                               ; preds = %75
  call void @llvm.lifetime.start.p0(i64 8, ptr %13) #15
  store i64 0, ptr %13, align 8, !tbaa !45
  call void @llvm.lifetime.start.p0(i64 8, ptr %14) #15
  %86 = load ptr, ptr %6, align 8, !tbaa !42
  store ptr %86, ptr %14, align 8, !tbaa !42
  br label %87

87:                                               ; preds = %117, %85
  %88 = load ptr, ptr %14, align 8, !tbaa !42
  %89 = load i8, ptr %88, align 1, !tbaa !11
  %90 = sext i8 %89 to i32
  %91 = icmp ne i32 %90, 0
  br i1 %91, label %93, label %92

92:                                               ; preds = %87
  store i32 8, ptr %12, align 4
  call void @llvm.lifetime.end.p0(i64 8, ptr %14) #15
  br label %120

93:                                               ; preds = %87
  %94 = load ptr, ptr %7, align 8, !tbaa !42
  %95 = load ptr, ptr %14, align 8, !tbaa !42
  %96 = load i8, ptr %95, align 1, !tbaa !11
  %97 = sext i8 %96 to i32
  %98 = call ptr @strchr(ptr noundef %94, i32 noundef %97) #18
  %99 = icmp eq ptr %98, null
  br i1 %99, label %100, label %116

100:                                              ; preds = %93
  %101 = load ptr, ptr %14, align 8, !tbaa !42
  %102 = getelementptr inbounds i8, ptr %101, i64 1
  %103 = load ptr, ptr %14, align 8, !tbaa !42
  %104 = load i8, ptr %103, align 1, !tbaa !11
  %105 = sext i8 %104 to i32
  %106 = call ptr @strchr(ptr noundef %102, i32 noundef %105) #18
  %107 = icmp eq ptr %106, null
  br i1 %107, label %108, label %116

108:                                              ; preds = %100
  %109 = load ptr, ptr %14, align 8, !tbaa !42
  %110 = load i8, ptr %109, align 1, !tbaa !11
  %111 = load ptr, ptr %11, align 8, !tbaa !42
  %112 = load i64, ptr %13, align 8, !tbaa !45
  %113 = getelementptr inbounds nuw i8, ptr %111, i64 %112
  store i8 %110, ptr %113, align 1, !tbaa !11
  %114 = load i64, ptr %13, align 8, !tbaa !45
  %115 = add i64 %114, 1
  store i64 %115, ptr %13, align 8, !tbaa !45
  br label %116

116:                                              ; preds = %108, %100, %93
  br label %117

117:                                              ; preds = %116
  %118 = load ptr, ptr %14, align 8, !tbaa !42
  %119 = getelementptr inbounds nuw i8, ptr %118, i32 1
  store ptr %119, ptr %14, align 8, !tbaa !42
  br label %87, !llvm.loop !114

120:                                              ; preds = %92
  call void @llvm.lifetime.start.p0(i64 8, ptr %15) #15
  %121 = load ptr, ptr %7, align 8, !tbaa !42
  store ptr %121, ptr %15, align 8, !tbaa !42
  br label %122

122:                                              ; preds = %152, %120
  %123 = load ptr, ptr %15, align 8, !tbaa !42
  %124 = load i8, ptr %123, align 1, !tbaa !11
  %125 = sext i8 %124 to i32
  %126 = icmp ne i32 %125, 0
  br i1 %126, label %128, label %127

127:                                              ; preds = %122
  store i32 11, ptr %12, align 4
  call void @llvm.lifetime.end.p0(i64 8, ptr %15) #15
  br label %155

128:                                              ; preds = %122
  %129 = load ptr, ptr %6, align 8, !tbaa !42
  %130 = load ptr, ptr %15, align 8, !tbaa !42
  %131 = load i8, ptr %130, align 1, !tbaa !11
  %132 = sext i8 %131 to i32
  %133 = call ptr @strchr(ptr noundef %129, i32 noundef %132) #18
  %134 = icmp eq ptr %133, null
  br i1 %134, label %135, label %151

135:                                              ; preds = %128
  %136 = load ptr, ptr %15, align 8, !tbaa !42
  %137 = getelementptr inbounds i8, ptr %136, i64 1
  %138 = load ptr, ptr %15, align 8, !tbaa !42
  %139 = load i8, ptr %138, align 1, !tbaa !11
  %140 = sext i8 %139 to i32
  %141 = call ptr @strchr(ptr noundef %137, i32 noundef %140) #18
  %142 = icmp eq ptr %141, null
  br i1 %142, label %143, label %151

143:                                              ; preds = %135
  %144 = load ptr, ptr %15, align 8, !tbaa !42
  %145 = load i8, ptr %144, align 1, !tbaa !11
  %146 = load ptr, ptr %11, align 8, !tbaa !42
  %147 = load i64, ptr %13, align 8, !tbaa !45
  %148 = getelementptr inbounds nuw i8, ptr %146, i64 %147
  store i8 %145, ptr %148, align 1, !tbaa !11
  %149 = load i64, ptr %13, align 8, !tbaa !45
  %150 = add i64 %149, 1
  store i64 %150, ptr %13, align 8, !tbaa !45
  br label %151

151:                                              ; preds = %143, %135, %128
  br label %152

152:                                              ; preds = %151
  %153 = load ptr, ptr %15, align 8, !tbaa !42
  %154 = getelementptr inbounds nuw i8, ptr %153, i32 1
  store ptr %154, ptr %15, align 8, !tbaa !42
  br label %122, !llvm.loop !115

155:                                              ; preds = %127
  %156 = load ptr, ptr %11, align 8, !tbaa !42
  %157 = load i64, ptr %13, align 8, !tbaa !45
  %158 = getelementptr inbounds nuw i8, ptr %156, i64 %157
  store i8 0, ptr %158, align 1, !tbaa !11
  %159 = load ptr, ptr %11, align 8, !tbaa !42
  store ptr %159, ptr %4, align 8
  store i32 1, ptr %12, align 4
  call void @llvm.lifetime.end.p0(i64 8, ptr %13) #15
  br label %160

160:                                              ; preds = %155, %83
  call void @llvm.lifetime.end.p0(i64 8, ptr %11) #15
  call void @llvm.lifetime.end.p0(i64 8, ptr %8) #15
  %161 = load ptr, ptr %4, align 8
  ret ptr %161
}