; Function Attrs: nounwind uwtable
define internal fastcc ptr @str_xor(ptr noundef readonly captures(none) %0, ptr noundef readonly %1, ptr noundef readonly %2) unnamed_addr #0 {
  %4 = load i8, ptr %1, align 1, !tbaa !3
  %.not64 = icmp eq i8 %4, 0
  br i1 %.not64, label %.preheader63, label %.lr.ph

.preheader63:                                     ; preds = %14, %3
  %.049.lcssa = phi i64 [ 1, %3 ], [ %.150, %14 ]
  %5 = load i8, ptr %2, align 1, !tbaa !3
  %.not5867 = icmp eq i8 %5, 0
  br i1 %.not5867, label %._crit_edge, label %.lr.ph70

.lr.ph:                                           ; preds = %3, %14
  %.in = phi i8 [ %16, %14 ], [ %4, %3 ]
  %.04866 = phi ptr [ %15, %14 ], [ %1, %3 ]
  %.04965 = phi i64 [ %.150, %14 ], [ 1, %3 ]
  %6 = sext i8 %.in to i32
  %7 = tail call ptr @strchr(ptr noundef nonnull dereferenceable(1) %2, i32 noundef %6) #30
  %8 = icmp eq ptr %7, null
  br i1 %8, label %9, label %14

9:                                                ; preds = %.lr.ph
  %10 = getelementptr inbounds nuw i8, ptr %.04866, i64 1
  %11 = tail call ptr @strchr(ptr noundef nonnull dereferenceable(1) %10, i32 noundef %6) #30
  %12 = icmp eq ptr %11, null
  %13 = zext i1 %12 to i64
  %spec.select = add i64 %.04965, %13
  br label %14

14:                                               ; preds = %9, %.lr.ph
  %.150 = phi i64 [ %.04965, %.lr.ph ], [ %spec.select, %9 ]
  %15 = getelementptr inbounds nuw i8, ptr %.04866, i64 1
  %16 = load i8, ptr %15, align 1, !tbaa !3
  %.not = icmp eq i8 %16, 0
  br i1 %.not, label %.preheader63, label %.lr.ph, !llvm.loop !103

._crit_edge:                                      ; preds = %30, %.preheader63
  %.251.lcssa = phi i64 [ %.049.lcssa, %.preheader63 ], [ %.352, %30 ]
  %17 = getelementptr inbounds nuw i8, ptr %0, i64 104
  %18 = load ptr, ptr %17, align 8, !tbaa !67
  %19 = tail call ptr @vmalloc(ptr noundef %18, i64 noundef %.251.lcssa) #25
  %20 = icmp eq ptr %19, null
  br i1 %20, label %33, label %.preheader62

.preheader62:                                     ; preds = %._crit_edge
  %21 = load i8, ptr %1, align 1, !tbaa !3
  %.not5972 = icmp eq i8 %21, 0
  br i1 %.not5972, label %.preheader, label %.lr.ph75

.lr.ph70:                                         ; preds = %.preheader63, %30
  %.in83 = phi i8 [ %32, %30 ], [ %5, %.preheader63 ]
  %.04769 = phi ptr [ %31, %30 ], [ %2, %.preheader63 ]
  %.25168 = phi i64 [ %.352, %30 ], [ %.049.lcssa, %.preheader63 ]
  %22 = sext i8 %.in83 to i32
  %23 = tail call ptr @strchr(ptr noundef nonnull dereferenceable(1) %1, i32 noundef %22) #30
  %24 = icmp eq ptr %23, null
  br i1 %24, label %25, label %30

25:                                               ; preds = %.lr.ph70
  %26 = getelementptr inbounds nuw i8, ptr %.04769, i64 1
  %27 = tail call ptr @strchr(ptr noundef nonnull dereferenceable(1) %26, i32 noundef %22) #30
  %28 = icmp eq ptr %27, null
  %29 = zext i1 %28 to i64
  %spec.select61 = add i64 %.25168, %29
  br label %30

30:                                               ; preds = %25, %.lr.ph70
  %.352 = phi i64 [ %.25168, %.lr.ph70 ], [ %spec.select61, %25 ]
  %31 = getelementptr inbounds nuw i8, ptr %.04769, i64 1
  %32 = load i8, ptr %31, align 1, !tbaa !3
  %.not58 = icmp eq i8 %32, 0
  br i1 %.not58, label %._crit_edge, label %.lr.ph70, !llvm.loop !104

33:                                               ; preds = %._crit_edge
  %34 = tail call ptr @exnospace() #25
  br label %65

.preheader:                                       ; preds = %47, %.preheader62
  %.045.lcssa = phi i64 [ 0, %.preheader62 ], [ %.1, %47 ]
  %35 = load i8, ptr %2, align 1, !tbaa !3
  %.not6077 = icmp eq i8 %35, 0
  br i1 %.not6077, label %._crit_edge81, label %.lr.ph80

.lr.ph75:                                         ; preds = %.preheader62, %47
  %36 = phi i8 [ %49, %47 ], [ %21, %.preheader62 ]
  %.04474 = phi ptr [ %48, %47 ], [ %1, %.preheader62 ]
  %.04573 = phi i64 [ %.1, %47 ], [ 0, %.preheader62 ]
  %37 = sext i8 %36 to i32
  %38 = tail call ptr @strchr(ptr noundef nonnull dereferenceable(1) %2, i32 noundef %37) #30
  %39 = icmp eq ptr %38, null
  br i1 %39, label %40, label %47

40:                                               ; preds = %.lr.ph75
  %41 = getelementptr inbounds nuw i8, ptr %.04474, i64 1
  %42 = tail call ptr @strchr(ptr noundef nonnull dereferenceable(1) %41, i32 noundef %37) #30
  %43 = icmp eq ptr %42, null
  br i1 %43, label %44, label %47

44:                                               ; preds = %40
  %45 = getelementptr inbounds nuw i8, ptr %19, i64 %.04573
  store i8 %36, ptr %45, align 1, !tbaa !3
  %46 = add i64 %.04573, 1
  br label %47

47:                                               ; preds = %.lr.ph75, %40, %44
  %.1 = phi i64 [ %46, %44 ], [ %.04573, %40 ], [ %.04573, %.lr.ph75 ]
  %48 = getelementptr inbounds nuw i8, ptr %.04474, i64 1
  %49 = load i8, ptr %48, align 1, !tbaa !3
  %.not59 = icmp eq i8 %49, 0
  br i1 %.not59, label %.preheader, label %.lr.ph75, !llvm.loop !105

._crit_edge81:                                    ; preds = %62, %.preheader
  %.2.lcssa = phi i64 [ %.045.lcssa, %.preheader ], [ %.3, %62 ]
  %50 = getelementptr inbounds nuw i8, ptr %19, i64 %.2.lcssa
  store i8 0, ptr %50, align 1, !tbaa !3
  br label %65

.lr.ph80:                                         ; preds = %.preheader, %62
  %51 = phi i8 [ %64, %62 ], [ %35, %.preheader ]
  %.079 = phi ptr [ %63, %62 ], [ %2, %.preheader ]
  %.278 = phi i64 [ %.3, %62 ], [ %.045.lcssa, %.preheader ]
  %52 = sext i8 %51 to i32
  %53 = tail call ptr @strchr(ptr noundef nonnull dereferenceable(1) %1, i32 noundef %52) #30
  %54 = icmp eq ptr %53, null
  br i1 %54, label %55, label %62

55:                                               ; preds = %.lr.ph80
  %56 = getelementptr inbounds nuw i8, ptr %.079, i64 1
  %57 = tail call ptr @strchr(ptr noundef nonnull dereferenceable(1) %56, i32 noundef %52) #30
  %58 = icmp eq ptr %57, null
  br i1 %58, label %59, label %62

59:                                               ; preds = %55
  %60 = getelementptr inbounds nuw i8, ptr %19, i64 %.278
  store i8 %51, ptr %60, align 1, !tbaa !3
  %61 = add i64 %.278, 1
  br label %62

62:                                               ; preds = %.lr.ph80, %55, %59
  %.3 = phi i64 [ %61, %59 ], [ %.278, %55 ], [ %.278, %.lr.ph80 ]
  %63 = getelementptr inbounds nuw i8, ptr %.079, i64 1
  %64 = load i8, ptr %63, align 1, !tbaa !3
  %.not60 = icmp eq i8 %64, 0
  br i1 %.not60, label %._crit_edge81, label %.lr.ph80, !llvm.loop !106

65:                                               ; preds = %._crit_edge81, %33
  %.046 = phi ptr [ %34, %33 ], [ %19, %._crit_edge81 ]
  ret ptr %.046
}